target datalayout = "e-m:e-p270:32:32-p271:32:32-p272:64:64-i64:64-i128:128-f80:128-n8:16:32:64-S128"
target triple = "x86_64-pc-linux-gnu"

%"class.std::__shared_count" = type { ptr }
%"struct.rocksdb::EnvWrapper::Target" = type { ptr, %"class.std::shared_ptr.135" }
%"class.std::shared_ptr.135" = type { %"class.std::__shared_ptr.136" }
%"class.std::__shared_ptr.136" = type { ptr, %"class.std::__shared_count" }

; Function Attrs: inlinehint mustprogress uwtable
define internal noundef zeroext i1 @"_ZNK7rocksdb12_GLOBAL__N_13$_1clERKNS_13ConfigOptionsERKNSt7__cxx1112basic_stringIcSt11char_traitsIcESaIcEEEPKvSE_PSA_"(ptr noundef nonnull align 1 dereferenceable(1) %0, ptr noundef nonnull align 8 dereferenceable(80) %1, ptr noundef nonnull align 8 dereferenceable(32) %2, ptr noundef %3, ptr noundef %4, ptr noundef %5) #14 align 2 {
  %7 = alloca i1, align 1
  %8 = alloca ptr, align 8
  %9 = alloca ptr, align 8
  %10 = alloca ptr, align 8
  %11 = alloca ptr, align 8
  %12 = alloca ptr, align 8
  %13 = alloca ptr, align 8
  %14 = alloca ptr, align 8
  %15 = alloca ptr, align 8
  %16 = alloca i32, align 4
  store ptr %0, ptr %8, align 8, !tbaa !182
  store ptr %1, ptr %9, align 8, !tbaa !227
  store ptr %2, ptr %10, align 8, !tbaa !9
  store ptr %3, ptr %11, align 8, !tbaa !182
  store ptr %4, ptr %12, align 8, !tbaa !182
  store ptr %5, ptr %13, align 8, !tbaa !9
  call void @llvm.lifetime.start.p0(i64 8, ptr %14) #7
  %17 = load ptr, ptr %11, align 8, !tbaa !182
  store ptr %17, ptr %14, align 8, !tbaa !215
  call void @llvm.lifetime.start.p0(i64 8, ptr %15) #7
  %18 = load ptr, ptr %12, align 8, !tbaa !182
  store ptr %18, ptr %15, align 8, !tbaa !215
  %19 = load ptr, ptr %14, align 8, !tbaa !215
  %20 = getelementptr inbounds nuw %"struct.rocksdb::EnvWrapper::Target", ptr %19, i32 0, i32 0
  %21 = load ptr, ptr %20, align 8, !tbaa !217
  %22 = icmp ne ptr %21, null
  br i1 %22, label %23, label %36

23:                                               ; preds = %6
  %24 = load ptr, ptr %14, align 8, !tbaa !215
  %25 = getelementptr inbounds nuw %"struct.rocksdb::EnvWrapper::Target", ptr %24, i32 0, i32 0
  %26 = load ptr, ptr %25, align 8, !tbaa !217
  %27 = load ptr, ptr %9, align 8, !tbaa !227
  %28 = load ptr, ptr %15, align 8, !tbaa !215
  %29 = getelementptr inbounds nuw %"struct.rocksdb::EnvWrapper::Target", ptr %28, i32 0, i32 0
  %30 = load ptr, ptr %29, align 8, !tbaa !217
  %31 = load ptr, ptr %13, align 8, !tbaa !9
  %32 = load ptr, ptr %26, align 8, !tbaa !15
  %33 = getelementptr inbounds ptr, ptr %32, i64 3
  %34 = load ptr, ptr %33, align 8
  %35 = call noundef zeroext i1 %34(ptr noundef nonnull align 8 dereferenceable(32) %26, ptr noundef nonnull align 8 dereferenceable(80) %27, ptr noundef %30, ptr noundef %31)
  store i1 %35, ptr %7, align 1
  store i32 1, ptr %16, align 4
  br label %41

36:                                               ; preds = %6
  %37 = load ptr, ptr %15, align 8, !tbaa !215
  %38 = getelementptr inbounds nuw %"struct.rocksdb::EnvWrapper::Target", ptr %37, i32 0, i32 0
  %39 = load ptr, ptr %38, align 8, !tbaa !217
  %40 = icmp eq ptr %39, null
  store i1 %40, ptr %7, align 1
  store i32 1, ptr %16, align 4
  br label %41

41:                                               ; preds = %36, %23
  call void @llvm.lifetime.end.p0(i64 8, ptr %15) #7
  call void @llvm.lifetime.end.p0(i64 8, ptr %14) #7
  %42 = load i1, ptr %7, align 1
  ret i1 %42
}

; Function Attrs: mustprogress nounwind uwtable
define linkonce_odr noundef ptr @_ZNKSt9_Any_data9_M_accessEv(ptr noundef nonnull align 8 dereferenceable(16) %0) #2 comdat align 2 {
  %2 = alloca ptr, align 8
  store ptr %0, ptr %2, align 8, !tbaa !581
  %3 = load ptr, ptr %2, align 8
  %4 = getelementptr inbounds [16 x i8], ptr %3, i64 0, i64 0
  ret ptr %4
}

; Function Attrs: mustprogress uwtable
define internal noundef zeroext i1 @"_ZSt13__invoke_implIbRN7rocksdb12_GLOBAL__N_13$_1EJRKNS0_13ConfigOptionsERKNSt7__cxx1112basic_stringIcSt11char_traitsIcESaIcEEEPKvSG_PSC_EET_St14__invoke_otherOT0_DpOT1_"(ptr noundef nonnull align 1 dereferenceable(1) %0, ptr noundef nonnull align 8 dereferenceable(80) %1, ptr noundef nonnull align 8 dereferenceable(32) %2, ptr noundef nonnull align 8 dereferenceable(8) %3, ptr noundef nonnull align 8 dereferenceable(8) %4, ptr noundef nonnull align 8 dereferenceable(8) %5) #0 {
  %7 = alloca ptr, align 8
  %8 = alloca ptr, align 8
  %9 = alloca ptr, align 8
  %10 = alloca ptr, align 8
  %11 = alloca ptr, align 8
  %12 = alloca ptr, align 8
  store ptr %0, ptr %7, align 8, !tbaa !182
  store ptr %1, ptr %8, align 8, !tbaa !227
  store ptr %2, ptr %9, align 8, !tbaa !9
  store ptr %3, ptr %10, align 8, !tbaa !457
  store ptr %4, ptr %11, align 8, !tbaa !457
  store ptr %5, ptr %12, align 8, !tbaa !733
  %13 = load ptr, ptr %7, align 8, !tbaa !182
  %14 = load ptr, ptr %8, align 8, !tbaa !227
  %15 = load ptr, ptr %9, align 8, !tbaa !9
  %16 = load ptr, ptr %10, align 8, !tbaa !457
  %17 = load ptr, ptr %16, align 8, !tbaa !182
  %18 = load ptr, ptr %11, align 8, !tbaa !457
  %19 = load ptr, ptr %18, align 8, !tbaa !182
  %20 = load ptr, ptr %12, align 8, !tbaa !733
  %21 = load ptr, ptr %20, align 8, !tbaa !9
  %22 = call noundef zeroext i1 @"_ZNK7rocksdb12_GLOBAL__N_13$_1clERKNS_13ConfigOptionsERKNSt7__cxx1112basic_stringIcSt11char_traitsIcESaIcEEEPKvSE_PSA_"(ptr noundef nonnull align 1 dereferenceable(1) %13, ptr noundef nonnull align 8 dereferenceable(80) %14, ptr noundef nonnull align 8 dereferenceable(32) %15, ptr noundef %17, ptr noundef %19, ptr noundef %21)
  ret i1 %22
}

; Function Attrs: mustprogress nounwind uwtable
define internal noundef nonnull align 1 dereferenceable(1) ptr @"_ZNKSt9_Any_data9_M_accessIN7rocksdb12_GLOBAL__N_13$_1EEERKT_v"(ptr noundef nonnull align 8 dereferenceable(16) %0) #2 align 2 {
  %2 = alloca ptr, align 8
  store ptr %0, ptr %2, align 8, !tbaa !581
  %3 = load ptr, ptr %2, align 8
  %4 = call noundef ptr @_ZNKSt9_Any_data9_M_accessEv(ptr noundef nonnull align 8 dereferenceable(16) %3) #7
  ret ptr %4
}

; Function Attrs: mustprogress uwtable
define internal noundef zeroext i1 @"_ZSt10__invoke_rIbRN7rocksdb12_GLOBAL__N_13$_1EJRKNS0_13ConfigOptionsERKNSt7__cxx1112basic_stringIcSt11char_traitsIcESaIcEEEPKvSG_PSC_EENSt9enable_ifIX16is_invocable_r_vIT_T0_DpT1_EESJ_E4typeEOSK_DpOSL_"(ptr noundef nonnull align 1 dereferenceable(1) %0, ptr noundef nonnull align 8 dereferenceable(80) %1, ptr noundef nonnull align 8 dereferenceable(32) %2, ptr noundef nonnull align 8 dereferenceable(8) %3, ptr noundef nonnull align 8 dereferenceable(8) %4, ptr noundef nonnull align 8 dereferenceable(8) %5) #0 {
  %7 = alloca ptr, align 8
  %8 = alloca ptr, align 8
  %9 = alloca ptr, align 8
  %10 = alloca ptr, align 8
  %11 = alloca ptr, align 8
  %12 = alloca ptr, align 8
  store ptr %0, ptr %7, align 8, !tbaa !182
  store ptr %1, ptr %8, align 8, !tbaa !227
  store ptr %2, ptr %9, align 8, !tbaa !9
  store ptr %3, ptr %10, align 8, !tbaa !457
  store ptr %4, ptr %11, align 8, !tbaa !457
  store ptr %5, ptr %12, align 8, !tbaa !733
  %13 = load ptr, ptr %7, align 8, !tbaa !182
  %14 = load ptr, ptr %8, align 8, !tbaa !227
  %15 = load ptr, ptr %9, align 8, !tbaa !9
  %16 = load ptr, ptr %10, align 8, !tbaa !457
  %17 = load ptr, ptr %11, align 8, !tbaa !457
  %18 = load ptr, ptr %12, align 8, !tbaa !733
  %19 = call noundef zeroext i1 @"_ZSt13__invoke_implIbRN7rocksdb12_GLOBAL__N_13$_1EJRKNS0_13ConfigOptionsERKNSt7__cxx1112basic_stringIcSt11char_traitsIcESaIcEEEPKvSG_PSC_EET_St14__invoke_otherOT0_DpOT1_"(ptr noundef nonnull align 1 dereferenceable(1) %13, ptr noundef nonnull align 8 dereferenceable(80) %14, ptr noundef nonnull align 8 dereferenceable(32) %15, ptr noundef nonnull align 8 dereferenceable(8) %16, ptr noundef nonnull align 8 dereferenceable(8) %17, ptr noundef nonnull align 8 dereferenceable(8) %18)
  ret i1 %19
}

; Function Attrs: mustprogress nounwind uwtable
define internal noundef ptr @"_ZNSt14_Function_base13_Base_managerIN7rocksdb12_GLOBAL__N_13$_1EE14_M_get_pointerERKSt9_Any_data"(ptr noundef nonnull align 8 dereferenceable(16) %0) #2 align 2 {
  %2 = alloca ptr, align 8
  %3 = alloca ptr, align 8
  store ptr %0, ptr %2, align 8, !tbaa !581
  call void @llvm.lifetime.start.p0(i64 8, ptr %3) #7
  %4 = load ptr, ptr %2, align 8, !tbaa !581
  %5 = call noundef nonnull align 1 dereferenceable(1) ptr @"_ZNKSt9_Any_data9_M_accessIN7rocksdb12_GLOBAL__N_13$_1EEERKT_v"(ptr noundef nonnull align 8 dereferenceable(16) %4) #7
  store ptr %5, ptr %3, align 8, !tbaa !182
  %6 = load ptr, ptr %3, align 8, !tbaa !182
  call void @llvm.lifetime.end.p0(i64 8, ptr %3) #7
  ret ptr %6
}

; Function Attrs: mustprogress uwtable
define internal noundef zeroext i1 @"_ZNSt17_Function_handlerIFbRKN7rocksdb13ConfigOptionsERKNSt7__cxx1112basic_stringIcSt11char_traitsIcESaIcEEEPKvSD_PS9_ENS0_12_GLOBAL__N_13$_1EE9_M_invokeERKSt9_Any_dataS3_SB_OSD_SM_OSE_"(ptr noundef nonnull align 8 dereferenceable(16) %0, ptr noundef nonnull align 8 dereferenceable(80) %1, ptr noundef nonnull align 8 dereferenceable(32) %2, ptr noundef nonnull align 8 dereferenceable(8) %3, ptr noundef nonnull align 8 dereferenceable(8) %4, ptr noundef nonnull align 8 dereferenceable(8) %5) #0 align 2 {
  %7 = alloca ptr, align 8
  %8 = alloca ptr, align 8
  %9 = alloca ptr, align 8
  %10 = alloca ptr, align 8
  %11 = alloca ptr, align 8
  %12 = alloca ptr, align 8
  store ptr %0, ptr %7, align 8, !tbaa !581
  store ptr %1, ptr %8, align 8, !tbaa !227
  store ptr %2, ptr %9, align 8, !tbaa !9
  store ptr %3, ptr %10, align 8, !tbaa !457
  store ptr %4, ptr %11, align 8, !tbaa !457
  store ptr %5, ptr %12, align 8, !tbaa !733
  %13 = load ptr, ptr %7, align 8, !tbaa !581
  %14 = call noundef ptr @"_ZNSt14_Function_base13_Base_managerIN7rocksdb12_GLOBAL__N_13$_1EE14_M_get_pointerERKSt9_Any_data"(ptr noundef nonnull align 8 dereferenceable(16) %13) #7
  %15 = load ptr, ptr %8, align 8, !tbaa !227
  %16 = load ptr, ptr %9, align 8, !tbaa !9
  %17 = load ptr, ptr %10, align 8, !tbaa !457
  %18 = load ptr, ptr %11, align 8, !tbaa !457
  %19 = load ptr, ptr %12, align 8, !tbaa !733
  %20 = call noundef zeroext i1 @"_ZSt10__invoke_rIbRN7rocksdb12_GLOBAL__N_13$_1EJRKNS0_13ConfigOptionsERKNSt7__cxx1112basic_stringIcSt11char_traitsIcESaIcEEEPKvSG_PSC_EENSt9enable_ifIX16is_invocable_r_vIT_T0_DpT1_EESJ_E4typeEOSK_DpOSL_"(ptr noundef nonnull align 1 dereferenceable(1) %14, ptr noundef nonnull align 8 dereferenceable(80) %15, ptr noundef nonnull align 8 dereferenceable(32) %16, ptr noundef nonnull align 8 dereferenceable(8) %17, ptr noundef nonnull align 8 dereferenceable(8) %18, ptr noundef nonnull align 8 dereferenceable(8) %19)
  ret i1 %20
}