; Function Attrs: mustprogress uwtable
define internal noundef zeroext i1 @"_ZNSt17_Function_handlerIFbRKN7rocksdb13ConfigOptionsERKNSt7__cxx1112basic_stringIcSt11char_traitsIcESaIcEEEPKvSD_PS9_ENS0_12_GLOBAL__N_13$_1EE9_M_invokeERKSt9_Any_dataS3_SB_OSD_SM_OSE_"(ptr nonnull readnone align 8 captures(none) %0, ptr noundef nonnull align 8 dereferenceable(80) %1, ptr nonnull readnone align 8 captures(none) %2, ptr noundef nonnull readonly align 8 captures(none) dereferenceable(8) %3, ptr noundef nonnull readonly align 8 captures(none) dereferenceable(8) %4, ptr noundef nonnull readonly align 8 captures(none) dereferenceable(8) %5) #0 align 2 {
  %.val = load ptr, ptr %3, align 8, !tbaa !248
  %.val6 = load ptr, ptr %4, align 8, !tbaa !248
  %.val.val = load ptr, ptr %.val, align 8, !tbaa !162
  %.val6.val = load ptr, ptr %.val6, align 8, !tbaa !162
  %.not.i.i.i = icmp eq ptr %.val.val, null
  br i1 %.not.i.i.i, label %12, label %7

7:                                                ; preds = %6
  %.val7 = load ptr, ptr %5, align 8, !tbaa !251
  %8 = load ptr, ptr %.val.val, align 8, !tbaa !73
  %9 = getelementptr inbounds nuw i8, ptr %8, i64 24
  %10 = load ptr, ptr %9, align 8
  %11 = tail call noundef zeroext i1 %10(ptr noundef nonnull align 8 dereferenceable(32) %.val.val, ptr noundef nonnull align 8 dereferenceable(80) %1, ptr noundef %.val6.val, ptr noundef %.val7)
  br label %"_ZSt10__invoke_rIbRN7rocksdb12_GLOBAL__N_13$_1EJRKNS0_13ConfigOptionsERKNSt7__cxx1112basic_stringIcSt11char_traitsIcESaIcEEEPKvSG_PSC_EENSt9enable_ifIX16is_invocable_r_vIT_T0_DpT1_EESJ_E4typeEOSK_DpOSL_.exit"

12:                                               ; preds = %6
  %13 = icmp eq ptr %.val6.val, null
  br label %"_ZSt10__invoke_rIbRN7rocksdb12_GLOBAL__N_13$_1EJRKNS0_13ConfigOptionsERKNSt7__cxx1112basic_stringIcSt11char_traitsIcESaIcEEEPKvSG_PSC_EENSt9enable_ifIX16is_invocable_r_vIT_T0_DpT1_EESJ_E4typeEOSK_DpOSL_.exit"

"_ZSt10__invoke_rIbRN7rocksdb12_GLOBAL__N_13$_1EJRKNS0_13ConfigOptionsERKNSt7__cxx1112basic_stringIcSt11char_traitsIcESaIcEEEPKvSG_PSC_EENSt9enable_ifIX16is_invocable_r_vIT_T0_DpT1_EESJ_E4typeEOSK_DpOSL_.exit": ; preds = %7, %12
  %.0.i.i.i = phi i1 [ %11, %7 ], [ %13, %12 ]
  ret i1 %.0.i.i.i
}